target datalayout = "e-m:e-p270:32:32-p271:32:32-p272:64:64-i64:64-i128:128-f80:128-n8:16:32:64-S128"
target triple = "x86_64-pc-linux-gnu"

%"class.icu_77::UnicodeString" = type { %"class.icu_77::Replaceable", %"union.icu_77::UnicodeString::StackBufferOrFields" }
%"class.icu_77::Replaceable" = type { %"class.icu_77::UObject" }
%"class.icu_77::UObject" = type { ptr }
%"union.icu_77::UnicodeString::StackBufferOrFields" = type { %struct.anon.0, [32 x i8] }
%struct.anon.0 = type { i16, i32, i32, ptr }
%"class.icu_77::DateTimePatternGenerator" = type <{ %"class.icu_77::UObject", %"class.icu_77::Locale", ptr, ptr, ptr, ptr, [16 x %"class.icu_77::UnicodeString"], [16 x [3 x %"class.icu_77::UnicodeString"]], [4 x %"class.icu_77::UnicodeString"], %"class.icu_77::UnicodeString", ptr, ptr, %"class.icu_77::UnicodeString", i16, [2 x i8], [7 x i32], i32, [4 x i8] }>
%"class.icu_77::Locale" = type <{ %"class.icu_77::UObject", [12 x i8], [6 x i8], [4 x i8], [2 x i8], i32, [4 x i8], ptr, [157 x i8], [3 x i8], ptr, i8, [7 x i8] }>
%struct.anon = type { i16, [27 x i16] }

@_ZN6icu_77L15Canonical_ItemsE = internal constant [17 x i16] [i16 71, i16 121, i16 81, i16 77, i16 119, i16 87, i16 69, i16 68, i16 70, i16 100, i16 97, i16 72, i16 109, i16 115, i16 83, i16 118, i16 0], align 16
@_ZTVN6icu_777UObjectE = available_externally unnamed_addr constant { [5 x ptr] } { [5 x ptr] [ptr null, ptr @_ZTIN6icu_777UObjectE, ptr @_ZN6icu_777UObjectD1Ev, ptr @_ZN6icu_777UObjectD0Ev, ptr @_ZNK6icu_777UObject17getDynamicClassIDEv] }, align 8

; Function Attrs: inlinehint mustprogress nounwind uwtable
define linkonce_odr void @_ZN6icu_777UObjectC2Ev(ptr noundef nonnull align 8 dereferenceable(8) %0) unnamed_addr #2 comdat align 2 {
  %2 = alloca ptr, align 8
  store ptr %0, ptr %2, align 8, !tbaa !58
  %3 = load ptr, ptr %2, align 8
  store ptr getelementptr inbounds inrange(-16, 24) ({ [5 x ptr] }, ptr @_ZTVN6icu_777UObjectE, i32 0, i32 0, i32 2), ptr %3, align 8, !tbaa !37
  ret void
}

; Function Attrs: inlinehint mustprogress nounwind uwtable
define linkonce_odr void @_ZN6icu_7711ReplaceableC2Ev(ptr noundef nonnull align 8 dereferenceable(8) %0) unnamed_addr #2 comdat align 2 {
  %2 = alloca ptr, align 8
  store ptr %0, ptr %2, align 8, !tbaa !313
  %3 = load ptr, ptr %2, align 8
  call void @_ZN6icu_777UObjectC2Ev(ptr noundef nonnull align 8 dereferenceable(8) %3) #13
  store ptr getelementptr inbounds inrange(-16, 88) ({ [13 x ptr] }, ptr @_ZTVN6icu_7711ReplaceableE, i32 0, i32 0, i32 2), ptr %3, align 8, !tbaa !37
  ret void
}

; Function Attrs: mustprogress uwtable
define noundef i32 @_ZN6icu_7724DateTimePatternGenerator10addPatternERKNS_13UnicodeStringEaRS1_R10UErrorCode(ptr noundef nonnull align 8 dereferenceable(4796) %0, ptr noundef nonnull align 8 dereferenceable(64) %1, i8 noundef signext %2, ptr noundef nonnull align 8 dereferenceable(64) %3, ptr noundef nonnull align 4 dereferenceable(4) %4) #1 align 2 {
  %6 = alloca i32, align 4
  %7 = alloca ptr, align 8
  %8 = alloca ptr, align 8
  %9 = alloca i8, align 1
  %10 = alloca ptr, align 8
  %11 = alloca ptr, align 8
  store ptr %0, ptr %7, align 8, !tbaa !23
  store ptr %1, ptr %8, align 8, !tbaa !60
  store i8 %2, ptr %9, align 1, !tbaa !62
  store ptr %3, ptr %10, align 8, !tbaa !60
  store ptr %4, ptr %11, align 8, !tbaa !22
  %12 = load ptr, ptr %7, align 8
  %13 = getelementptr inbounds nuw %"class.icu_77::DateTimePatternGenerator", ptr %12, i32 0, i32 16
  %14 = load i32, ptr %13, align 8, !tbaa !53
  %15 = call noundef signext i8 @_ZL9U_FAILURE10UErrorCode(i32 noundef %14)
  %16 = icmp ne i8 %15, 0
  br i1 %16, label %17, label %21

17:                                               ; preds = %5
  %18 = getelementptr inbounds nuw %"class.icu_77::DateTimePatternGenerator", ptr %12, i32 0, i32 16
  %19 = load i32, ptr %18, align 8, !tbaa !53
  %20 = load ptr, ptr %11, align 8, !tbaa !22
  store i32 %19, ptr %20, align 4, !tbaa !15
  store i32 0, ptr %6, align 4
  br label %27

21:                                               ; preds = %5
  %22 = load ptr, ptr %8, align 8, !tbaa !60
  %23 = load i8, ptr %9, align 1, !tbaa !62
  %24 = load ptr, ptr %10, align 8, !tbaa !60
  %25 = load ptr, ptr %11, align 8, !tbaa !22
  %26 = call noundef i32 @_ZN6icu_7724DateTimePatternGenerator22addPatternWithSkeletonERKNS_13UnicodeStringEPS2_aRS1_R10UErrorCode(ptr noundef nonnull align 8 dereferenceable(4796) %12, ptr noundef nonnull align 8 dereferenceable(64) %22, ptr noundef null, i8 noundef signext %23, ptr noundef nonnull align 8 dereferenceable(64) %24, ptr noundef nonnull align 4 dereferenceable(4) %25)
  store i32 %26, ptr %6, align 4
  br label %27

27:                                               ; preds = %21, %17
  %28 = load i32, ptr %6, align 4
  ret i32 %28
}

; Function Attrs: inlinehint mustprogress uwtable
define linkonce_odr void @_ZN6icu_7713UnicodeStringC2Ev(ptr noundef nonnull align 8 dereferenceable(64) %0) unnamed_addr #3 comdat align 2 {
  %2 = alloca ptr, align 8
  store ptr %0, ptr %2, align 8, !tbaa !60
  %3 = load ptr, ptr %2, align 8
  call void @_ZN6icu_7711ReplaceableC2Ev(ptr noundef nonnull align 8 dereferenceable(8) %3)
  store ptr getelementptr inbounds inrange(-16, 88) ({ [13 x ptr] }, ptr @_ZTVN6icu_7713UnicodeStringE, i32 0, i32 0, i32 2), ptr %3, align 8, !tbaa !37
  %4 = getelementptr inbounds nuw %"class.icu_77::UnicodeString", ptr %3, i32 0, i32 1
  %5 = getelementptr inbounds nuw %struct.anon, ptr %4, i32 0, i32 0
  store i16 2, ptr %5, align 8, !tbaa !62
  ret void
}

; Function Attrs: inlinehint mustprogress nounwind uwtable
define internal noundef signext i8 @_ZL9U_FAILURE10UErrorCode(i32 noundef %0) #2 {
  %2 = alloca i32, align 4
  store i32 %0, ptr %2, align 4, !tbaa !15
  %3 = load i32, ptr %2, align 4, !tbaa !15
  %4 = icmp sgt i32 %3, 0
  %5 = zext i1 %4 to i8
  ret i8 %5
}

; Function Attrs: mustprogress uwtable
define void @_ZN6icu_7724DateTimePatternGenerator17addCanonicalItemsER10UErrorCode(ptr noundef nonnull align 8 dereferenceable(4796) %0, ptr noundef nonnull align 4 dereferenceable(4) %1) #1 align 2 personality ptr @__gxx_personality_v0 {
  %3 = alloca ptr, align 8
  %4 = alloca ptr, align 8
  %5 = alloca %"class.icu_77::UnicodeString", align 8
  %6 = alloca i32, align 4
  %7 = alloca i32, align 4
  %8 = alloca %"class.icu_77::UnicodeString", align 8
  %9 = alloca ptr, align 8
  %10 = alloca i32, align 4
  store ptr %0, ptr %3, align 8, !tbaa !23
  store ptr %1, ptr %4, align 8, !tbaa !22
  %11 = load ptr, ptr %3, align 8
  %12 = load ptr, ptr %4, align 8, !tbaa !22
  %13 = load i32, ptr %12, align 4, !tbaa !15
  %14 = call noundef signext i8 @_ZL9U_FAILURE10UErrorCode(i32 noundef %13)
  %15 = icmp ne i8 %14, 0
  br i1 %15, label %16, label %17

16:                                               ; preds = %2
  br label %68

17:                                               ; preds = %2
  call void @llvm.lifetime.start.p0(i64 64, ptr %5) #13
  call void @_ZN6icu_7713UnicodeStringC2Ev(ptr noundef nonnull align 8 dereferenceable(64) %5)
  call void @llvm.lifetime.start.p0(i64 4, ptr %6) #13
  store i32 0, ptr %6, align 4, !tbaa !14
  br label %18

18:                                               ; preds = %59, %17
  %19 = load i32, ptr %6, align 4, !tbaa !14
  %20 = icmp slt i32 %19, 16
  br i1 %20, label %22, label %21

21:                                               ; preds = %18
  store i32 2, ptr %7, align 4
  br label %62

22:                                               ; preds = %18
  %23 = load i32, ptr %6, align 4, !tbaa !14
  %24 = sext i32 %23 to i64
  %25 = getelementptr inbounds [17 x i16], ptr @_ZN6icu_77L15Canonical_ItemsE, i64 0, i64 %24
  %26 = load i16, ptr %25, align 2, !tbaa !104
  %27 = zext i16 %26 to i32
  %28 = icmp sgt i32 %27, 0
  br i1 %28, label %29, label %47

29:                                               ; preds = %22
  call void @llvm.lifetime.start.p0(i64 64, ptr %8) #13
  %30 = load i32, ptr %6, align 4, !tbaa !14
  %31 = sext i32 %30 to i64
  %32 = getelementptr inbounds [17 x i16], ptr @_ZN6icu_77L15Canonical_ItemsE, i64 0, i64 %31
  %33 = load i16, ptr %32, align 2, !tbaa !104
  invoke void @_ZN6icu_7713UnicodeStringC1EDs(ptr noundef nonnull align 8 dereferenceable(64) %8, i16 noundef zeroext %33)
          to label %34 unwind label %38

34:                                               ; preds = %29
  %35 = load ptr, ptr %4, align 8, !tbaa !22
  %36 = invoke noundef i32 @_ZN6icu_7724DateTimePatternGenerator10addPatternERKNS_13UnicodeStringEaRS1_R10UErrorCode(ptr noundef nonnull align 8 dereferenceable(4796) %11, ptr noundef nonnull align 8 dereferenceable(64) %8, i8 noundef signext 0, ptr noundef nonnull align 8 dereferenceable(64) %5, ptr noundef nonnull align 4 dereferenceable(4) %35)
          to label %37 unwind label %42

37:                                               ; preds = %34
  call void @_ZN6icu_7713UnicodeStringD1Ev(ptr noundef nonnull align 8 dereferenceable(64) %8) #13
  call void @llvm.lifetime.end.p0(i64 64, ptr %8) #13
  br label %47

38:                                               ; preds = %29
  %39 = landingpad { ptr, i32 }
          cleanup
  %40 = extractvalue { ptr, i32 } %39, 0
  store ptr %40, ptr %9, align 8
  %41 = extractvalue { ptr, i32 } %39, 1
  store i32 %41, ptr %10, align 4
  br label %46

42:                                               ; preds = %34
  %43 = landingpad { ptr, i32 }
          cleanup
  %44 = extractvalue { ptr, i32 } %43, 0
  store ptr %44, ptr %9, align 8
  %45 = extractvalue { ptr, i32 } %43, 1
  store i32 %45, ptr %10, align 4
  call void @_ZN6icu_7713UnicodeStringD1Ev(ptr noundef nonnull align 8 dereferenceable(64) %8) #13
  br label %46

46:                                               ; preds = %42, %38
  call void @llvm.lifetime.end.p0(i64 64, ptr %8) #13
  br label %64

47:                                               ; preds = %37, %22
  %48 = load ptr, ptr %4, align 8, !tbaa !22
  %49 = load i32, ptr %48, align 4, !tbaa !15
  %50 = invoke noundef signext i8 @_ZL9U_FAILURE10UErrorCode(i32 noundef %49)
          to label %51 unwind label %54

51:                                               ; preds = %47
  %52 = icmp ne i8 %50, 0
  br i1 %52, label %53, label %58

53:                                               ; preds = %51
  store i32 1, ptr %7, align 4
  br label %62

54:                                               ; preds = %47
  %55 = landingpad { ptr, i32 }
          cleanup
  %56 = extractvalue { ptr, i32 } %55, 0
  store ptr %56, ptr %9, align 8
  %57 = extractvalue { ptr, i32 } %55, 1
  store i32 %57, ptr %10, align 4
  br label %64

58:                                               ; preds = %51
  br label %59

59:                                               ; preds = %58
  %60 = load i32, ptr %6, align 4, !tbaa !14
  %61 = add nsw i32 %60, 1
  store i32 %61, ptr %6, align 4, !tbaa !14
  br label %18, !llvm.loop !105

62:                                               ; preds = %53, %21
  call void @llvm.lifetime.end.p0(i64 4, ptr %6) #13
  %63 = load i32, ptr %7, align 4
  switch i32 %63, label %66 [
    i32 2, label %65
  ]

64:                                               ; preds = %54, %46
  call void @llvm.lifetime.end.p0(i64 4, ptr %6) #13
  call void @_ZN6icu_7713UnicodeStringD1Ev(ptr noundef nonnull align 8 dereferenceable(64) %5) #13
  call void @llvm.lifetime.end.p0(i64 64, ptr %5) #13
  br label %69

65:                                               ; preds = %62
  store i32 0, ptr %7, align 4
  br label %66

66:                                               ; preds = %65, %62
  call void @_ZN6icu_7713UnicodeStringD1Ev(ptr noundef nonnull align 8 dereferenceable(64) %5) #13
  call void @llvm.lifetime.end.p0(i64 64, ptr %5) #13
  %67 = load i32, ptr %7, align 4
  switch i32 %67, label %74 [
    i32 0, label %68
    i32 1, label %68
  ]

68:                                               ; preds = %16, %66, %66
  ret void

69:                                               ; preds = %64
  %70 = load ptr, ptr %9, align 8
  %71 = load i32, ptr %10, align 4
  %72 = insertvalue { ptr, i32 } poison, ptr %70, 0
  %73 = insertvalue { ptr, i32 } %72, i32 %71, 1
  resume { ptr, i32 } %73

74:                                               ; preds = %66
  unreachable
}