; Function Attrs: mustprogress uwtable
define void @_ZN6icu_7724DateTimePatternGenerator17addCanonicalItemsER10UErrorCode(ptr noundef nonnull readonly align 8 captures(none) dereferenceable(4796) %0, ptr noundef nonnull align 4 captures(none) dereferenceable(4) %1) local_unnamed_addr #1 align 2 personality ptr @__gxx_personality_v0 {
  %3 = alloca %"class.icu_77::UnicodeString", align 8
  %4 = alloca %"class.icu_77::UnicodeString", align 8
  %5 = load i32, ptr %1, align 4, !tbaa !13
  %6 = icmp slt i32 %5, 1
  br i1 %6, label %7, label %27

7:                                                ; preds = %2
  call void @llvm.lifetime.start.p0(i64 64, ptr nonnull %3) #35
  store ptr getelementptr inbounds nuw inrange(-16, 88) (i8, ptr @_ZTVN6icu_7713UnicodeStringE, i64 16), ptr %3, align 8, !tbaa !15
  %8 = getelementptr inbounds nuw i8, ptr %3, i64 8
  store i16 2, ptr %8, align 8, !tbaa !17
  %9 = getelementptr inbounds nuw i8, ptr %0, i64 4792
  br label %10

10:                                               ; preds = %_ZN6icu_7724DateTimePatternGenerator10addPatternERKNS_13UnicodeStringEaRS1_R10UErrorCode.exit, %7
  %indvars.iv = phi i64 [ 0, %7 ], [ %indvars.iv.next, %_ZN6icu_7724DateTimePatternGenerator10addPatternERKNS_13UnicodeStringEaRS1_R10UErrorCode.exit ]
  %11 = getelementptr inbounds nuw [17 x i16], ptr @_ZN6icu_77L15Canonical_ItemsE, i64 0, i64 %indvars.iv
  call void @llvm.lifetime.start.p0(i64 64, ptr nonnull %4) #35
  %12 = load i16, ptr %11, align 2, !tbaa !79
  invoke void @_ZN6icu_7713UnicodeStringC1EDs(ptr noundef nonnull align 8 dereferenceable(64) %4, i16 noundef zeroext %12)
          to label %13 unwind label %21

13:                                               ; preds = %10
  %14 = load i32, ptr %9, align 8, !tbaa !30
  %15 = icmp slt i32 %14, 1
  br i1 %15, label %17, label %16

16:                                               ; preds = %13
  store i32 %14, ptr %1, align 4, !tbaa !13
  br label %_ZN6icu_7724DateTimePatternGenerator10addPatternERKNS_13UnicodeStringEaRS1_R10UErrorCode.exit

17:                                               ; preds = %13
  %18 = invoke noundef i32 @_ZN6icu_7724DateTimePatternGenerator22addPatternWithSkeletonERKNS_13UnicodeStringEPS2_aRS1_R10UErrorCode(ptr noundef nonnull readonly align 8 dereferenceable(4796) %0, ptr noundef nonnull align 8 dereferenceable(64) %4, ptr noundef null, i8 noundef signext 0, ptr noundef nonnull align 8 dereferenceable(64) %3, ptr noundef nonnull align 4 dereferenceable(4) %1)
          to label %_ZN6icu_7724DateTimePatternGenerator10addPatternERKNS_13UnicodeStringEaRS1_R10UErrorCode.exit unwind label %23

_ZN6icu_7724DateTimePatternGenerator10addPatternERKNS_13UnicodeStringEaRS1_R10UErrorCode.exit: ; preds = %16, %17
  call void @_ZN6icu_7713UnicodeStringD1Ev(ptr noundef nonnull align 8 dereferenceable(64) %4) #35
  call void @llvm.lifetime.end.p0(i64 64, ptr nonnull %4) #35
  %19 = load i32, ptr %1, align 4, !tbaa !13
  %20 = icmp sgt i32 %19, 0
  %indvars.iv.next = add nuw nsw i64 %indvars.iv, 1
  %exitcond.not = icmp eq i64 %indvars.iv.next, 16
  %or.cond = select i1 %20, i1 true, i1 %exitcond.not
  br i1 %or.cond, label %26, label %10, !llvm.loop !80

21:                                               ; preds = %10
  %22 = landingpad { ptr, i32 }
          cleanup
  br label %25

23:                                               ; preds = %17
  %24 = landingpad { ptr, i32 }
          cleanup
  call void @_ZN6icu_7713UnicodeStringD1Ev(ptr noundef nonnull align 8 dereferenceable(64) %4) #35
  br label %25

25:                                               ; preds = %23, %21
  %.pn = phi { ptr, i32 } [ %24, %23 ], [ %22, %21 ]
  call void @llvm.lifetime.end.p0(i64 64, ptr nonnull %4) #35
  call void @_ZN6icu_7713UnicodeStringD1Ev(ptr noundef nonnull align 8 dereferenceable(64) %3) #35
  call void @llvm.lifetime.end.p0(i64 64, ptr nonnull %3) #35
  resume { ptr, i32 } %.pn

26:                                               ; preds = %_ZN6icu_7724DateTimePatternGenerator10addPatternERKNS_13UnicodeStringEaRS1_R10UErrorCode.exit
  call void @_ZN6icu_7713UnicodeStringD1Ev(ptr noundef nonnull align 8 dereferenceable(64) %3) #35
  call void @llvm.lifetime.end.p0(i64 64, ptr nonnull %3) #35
  br label %27

27:                                               ; preds = %2, %26
  ret void
}